; Function Attrs: mustprogress nofree norecurse nosync nounwind willreturn memory(write, argmem: readwrite, inaccessiblemem: none) uwtable
define internal noundef i32 @_foreach_job_no_requeue(ptr noundef readonly captures(none) %0, ptr readnone captures(none) %1) #12 {
  %3 = getelementptr inbounds nuw i8, ptr %0, i64 216
  %4 = load ptr, ptr %3, align 8
  %.not = icmp eq ptr %4, null
  br i1 %.not, label %7, label %5

5:                                                ; preds = %2
  %6 = getelementptr inbounds nuw i8, ptr %4, i64 408
  store i16 0, ptr %6, align 8
  br label %7

7:                                                ; preds = %5, %2
  ret i32 0
}